; Function Attrs: null_pointer_is_valid sspstrong uwtable
define i32 @get_CDR_string(ptr noundef %0, ptr noundef writeonly captures(none) initializes((0, 8)) %1, ptr noundef captures(none) %2, i1 noundef zeroext %3, i32 noundef %4) local_unnamed_addr #0 {
  %.promoted.i = load i32, ptr %2, align 4
  %6 = add i32 %.promoted.i, %4
  %7 = and i32 %6, 3
  %.not9.i = icmp eq i32 %7, 0
  br i1 %.not9.i, label %9, label %.lr.ph.preheader.i

.lr.ph.preheader.i:                               ; preds = %5
  %8 = or i32 %6, -4
  %sub = sub i32 %.promoted.i, %8
  store i32 %sub, ptr %2, align 4
  br label %9

9:                                                ; preds = %.lr.ph.preheader.i, %5
  %.lcssa.i = phi i32 [ %sub, %.lr.ph.preheader.i ], [ %.promoted.i, %5 ]
  br i1 %3, label %10, label %12

10:                                               ; preds = %9
  %11 = tail call i32 @tvb_get_ntohl(ptr noundef %0, i32 noundef %.lcssa.i)
  br label %get_CDR_ulong.exit

12:                                               ; preds = %9
  %13 = tail call i32 @tvb_get_letohl(ptr noundef %0, i32 noundef %.lcssa.i)
  br label %get_CDR_ulong.exit

get_CDR_ulong.exit:                               ; preds = %10, %12
  %14 = phi i32 [ %11, %10 ], [ %13, %12 ]
  %15 = load i32, ptr %2, align 4
  %16 = add i32 %15, 4
  store i32 %16, ptr %2, align 4
  %17 = tail call i32 @tvb_reported_length_remaining(ptr noundef %0, i32 noundef %15)
  %spec.select = tail call i32 @llvm.umin.i32(i32 %14, i32 %17)
  %18 = tail call ptr @wmem_packet_scope()
  %19 = load i32, ptr %2, align 4
  %20 = tail call ptr @tvb_get_string_enc(ptr noundef %18, ptr noundef %0, i32 noundef %19, i32 noundef %spec.select, i32 noundef 10)
  store ptr %20, ptr %1, align 8
  %21 = load i32, ptr %2, align 4
  %22 = add i32 %21, %spec.select
  store i32 %22, ptr %2, align 4
  ret i32 %spec.select
}